; Function Attrs: mustprogress uwtable
define internal void @_ZN32pxrInternal_v0_24__pxrReserved__L78_Tf_RegistryFunctionTEST_PCP_DYNAMIC_FILE_FORMAT_TOKENS_USE_ATTRIBUTE_INPUTS53EPNS_21Tf_EnvSettingRegistryEPv(ptr readnone captures(none) %0, ptr readnone captures(none) %1) #1 personality ptr @__gxx_personality_v0 {
  %3 = load ptr, ptr @_ZN32pxrInternal_v0_24__pxrReserved__56TEST_PCP_DYNAMIC_FILE_FORMAT_TOKENS_USE_ATTRIBUTE_INPUTSE, align 8
  %4 = load atomic i64, ptr %3 seq_cst, align 8
  %.not.i = icmp eq i64 %4, 0
  br i1 %.not.i, label %5, label %_ZN32pxrInternal_v0_24__pxrReserved__15TfGetEnvSettingIbEERKT_RNS_12TfEnvSettingIS1_EE.exit

5:                                                ; preds = %2
  tail call void @_ZN32pxrInternal_v0_24__pxrReserved__23Tf_InitializeEnvSettingIbEEvPNS_12TfEnvSettingIT_EE(ptr noundef nonnull @_ZN32pxrInternal_v0_24__pxrReserved__56TEST_PCP_DYNAMIC_FILE_FORMAT_TOKENS_USE_ATTRIBUTE_INPUTSE)
  %6 = load ptr, ptr @_ZN32pxrInternal_v0_24__pxrReserved__56TEST_PCP_DYNAMIC_FILE_FORMAT_TOKENS_USE_ATTRIBUTE_INPUTSE, align 8
  %7 = load atomic i64, ptr %6 seq_cst, align 8
  br label %_ZN32pxrInternal_v0_24__pxrReserved__15TfGetEnvSettingIbEERKT_RNS_12TfEnvSettingIS1_EE.exit

_ZN32pxrInternal_v0_24__pxrReserved__15TfGetEnvSettingIbEERKT_RNS_12TfEnvSettingIS1_EE.exit: ; preds = %2, %5
  ret void
}